target datalayout = "e-m:e-p270:32:32-p271:32:32-p272:64:64-i64:64-i128:128-f80:128-n8:16:32:64-S128"
target triple = "x86_64-pc-linux-gnu"

%"class.LIEF::Object" = type { ptr }
%"class.LIEF::Relocation" = type <{ %"class.LIEF::Object", i64, i8, [7 x i8] }>

; Function Attrs: mustprogress nounwind uwtable
define noundef i64 @_ZNK4LIEF5MachO16RelocationObject4sizeEv(ptr noundef nonnull align 8 dereferenceable(64) %0) unnamed_addr #1 align 2 {
  %2 = alloca i64, align 8
  %3 = alloca ptr, align 8
  store ptr %0, ptr %3, align 8, !tbaa !15
  %4 = load ptr, ptr %3, align 8
  %5 = getelementptr inbounds nuw %"class.LIEF::Relocation", ptr %4, i32 0, i32 2
  %6 = load i8, ptr %5, align 8, !tbaa !37
  %7 = zext i8 %6 to i32
  %8 = icmp slt i32 %7, 2
  br i1 %8, label %9, label %15

9:                                                ; preds = %1
  %10 = getelementptr inbounds nuw %"class.LIEF::Relocation", ptr %4, i32 0, i32 2
  %11 = load i8, ptr %10, align 8, !tbaa !37
  %12 = zext i8 %11 to i64
  %13 = add i64 %12, 1
  %14 = mul i64 %13, 8
  store i64 %14, ptr %2, align 8
  br label %16

15:                                               ; preds = %1
  store i64 32, ptr %2, align 8
  br label %16

16:                                               ; preds = %15, %9
  %17 = load i64, ptr %2, align 8
  ret i64 %17
}