; Function Attrs: mustprogress nofree norecurse nosync nounwind willreturn memory(argmem: read) uwtable
define noundef range(i64 8, 256) i64 @_ZNK4LIEF5MachO16RelocationObject4sizeEv(ptr noundef nonnull readonly align 8 captures(none) dereferenceable(64) %0) unnamed_addr #3 align 2 {
  %2 = getelementptr inbounds nuw i8, ptr %0, i64 16
  %3 = load i8, ptr %2, align 8, !tbaa !9
  %4 = icmp ult i8 %3, 2
  %narrow = shl nuw nsw i8 %3, 3
  %5 = add nuw nsw i8 %narrow, 8
  %narrow1 = select i1 %4, i8 %5, i8 32
  %.0 = zext nneg i8 %narrow1 to i64
  ret i64 %.0
}